; Function Attrs: mustprogress nofree norecurse nosync nounwind null_pointer_is_valid sspstrong willreturn memory(none) uwtable
define noundef zeroext i1 @wtap_encap_requires_phdr(i32 noundef %0) local_unnamed_addr #2 {
  switch i32 %0, label %2 [
    i32 13, label %3
    i32 44, label %3
    i32 75, label %3
    i32 88, label %3
    i32 100, label %3
    i32 99, label %3
    i32 159, label %3
    i32 140, label %3
    i32 19, label %3
    i32 98, label %3
    i32 112, label %3
  ]

2:                                                ; preds = %1
  br label %3

3:                                                ; preds = %1, %1, %1, %1, %1, %1, %1, %1, %1, %1, %1, %2
  %.0 = phi i1 [ false, %2 ], [ true, %1 ], [ true, %1 ], [ true, %1 ], [ true, %1 ], [ true, %1 ], [ true, %1 ], [ true, %1 ], [ true, %1 ], [ true, %1 ], [ true, %1 ], [ true, %1 ]
  ret i1 %.0
}